; ModuleID = '22/813.c'
source_filename = "22/813.c"
target datalayout = "e-m:e-p270:32:32-p271:32:32-p272:64:64-i64:64-f80:128-n8:16:32:64-S128"
target triple = "x86_64-pc-linux-gnu"

@.str = private unnamed_addr constant [3 x i8] c"No\00", align 1
@.str.1 = private unnamed_addr constant [3 x i8] c"%d\00", align 1

; Function Attrs: noinline nounwind uwtable
define dso_local i32 @main() #0 {
  %1 = alloca i32, align 4
  %2 = alloca i8, align 1
  %3 = alloca [301 x i32], align 16
  %4 = alloca i32, align 4
  %5 = alloca i32, align 4
  %6 = alloca i32, align 4
  %7 = alloca i32, align 4
  %8 = alloca i32, align 4
  store i32 0, i32* %1, align 4
  %9 = bitcast [301 x i32]* %3 to i8*
  call void @llvm.memset.p0i8.i64(i8* align 16 %9, i8 0, i64 1204, i1 false)
  store i32 1, i32* %4, align 4
  store i32 0, i32* %5, align 4
  br label %10

10:                                               ; preds = %33, %0
  %11 = call i32 @getchar()
  %12 = trunc i32 %11 to i8
  store i8 %12, i8* %2, align 1
  %13 = sext i8 %12 to i32
  %14 = icmp ne i32 %13, 10
  br i1 %14, label %15, label %34

15:                                               ; preds = %10
  %16 = load i8, i8* %2, align 1
  %17 = sext i8 %16 to i32
  %18 = icmp ne i32 %17, 44
  br i1 %18, label %19, label %26

19:                                               ; preds = %15
  %20 = load i32, i32* %5, align 4
  %21 = mul nsw i32 %20, 10
  %22 = load i8, i8* %2, align 1
  %23 = sext i8 %22 to i32
  %24 = add nsw i32 %21, %23
  %25 = sub nsw i32 %24, 48
  store i32 %25, i32* %5, align 4
  br label %33

26:                                               ; preds = %15
  %27 = load i32, i32* %5, align 4
  %28 = load i32, i32* %4, align 4
  %29 = sext i32 %28 to i64
  %30 = getelementptr inbounds [301 x i32], [301 x i32]* %3, i64 0, i64 %29
  store i32 %27, i32* %30, align 4
  store i32 0, i32* %5, align 4
  %31 = load i32, i32* %4, align 4
  %32 = add nsw i32 %31, 1
  store i32 %32, i32* %4, align 4
  br label %33

33:                                               ; preds = %26, %19
  br label %10

34:                                               ; preds = %10
  %35 = load i32, i32* %5, align 4
  %36 = load i32, i32* %4, align 4
  %37 = sext i32 %36 to i64
  %38 = getelementptr inbounds [301 x i32], [301 x i32]* %3, i64 0, i64 %37
  store i32 %35, i32* %38, align 4
  %39 = load i32, i32* %4, align 4
  store i32 %39, i32* %8, align 4
  %40 = getelementptr inbounds [301 x i32], [301 x i32]* %3, i64 0, i64 1
  %41 = load i32, i32* %40, align 4
  store i32 %41, i32* %6, align 4
  store i32 -1, i32* %7, align 4
  store i32 2, i32* %4, align 4
  br label %42

42:                                               ; preds = %80, %34
  %43 = load i32, i32* %4, align 4
  %44 = load i32, i32* %8, align 4
  %45 = icmp sle i32 %43, %44
  br i1 %45, label %46, label %83

46:                                               ; preds = %42
  %47 = load i32, i32* %4, align 4
  %48 = sext i32 %47 to i64
  %49 = getelementptr inbounds [301 x i32], [301 x i32]* %3, i64 0, i64 %48
  %50 = load i32, i32* %49, align 4
  %51 = load i32, i32* %6, align 4
  %52 = icmp sgt i32 %50, %51
  br i1 %52, label %53, label %59

53:                                               ; preds = %46
  %54 = load i32, i32* %6, align 4
  store i32 %54, i32* %7, align 4
  %55 = load i32, i32* %4, align 4
  %56 = sext i32 %55 to i64
  %57 = getelementptr inbounds [301 x i32], [301 x i32]* %3, i64 0, i64 %56
  %58 = load i32, i32* %57, align 4
  store i32 %58, i32* %6, align 4
  br label %79

59:                                               ; preds = %46
  %60 = load i32, i32* %4, align 4
  %61 = sext i32 %60 to i64
  %62 = getelementptr inbounds [301 x i32], [301 x i32]* %3, i64 0, i64 %61
  %63 = load i32, i32* %62, align 4
  %64 = load i32, i32* %6, align 4
  %65 = icmp slt i32 %63, %64
  br i1 %65, label %66, label %78

66:                                               ; preds = %59
  %67 = load i32, i32* %4, align 4
  %68 = sext i32 %67 to i64
  %69 = getelementptr inbounds [301 x i32], [301 x i32]* %3, i64 0, i64 %68
  %70 = load i32, i32* %69, align 4
  %71 = load i32, i32* %7, align 4
  %72 = icmp sgt i32 %70, %71
  br i1 %72, label %73, label %78

73:                                               ; preds = %66
  %74 = load i32, i32* %4, align 4
  %75 = sext i32 %74 to i64
  %76 = getelementptr inbounds [301 x i32], [301 x i32]* %3, i64 0, i64 %75
  %77 = load i32, i32* %76, align 4
  store i32 %77, i32* %7, align 4
  br label %78

78:                                               ; preds = %73, %66, %59
  br label %79

79:                                               ; preds = %78, %53
  br label %80

80:                                               ; preds = %79
  %81 = load i32, i32* %4, align 4
  %82 = add nsw i32 %81, 1
  store i32 %82, i32* %4, align 4
  br label %42

83:                                               ; preds = %42
  %84 = load i32, i32* %7, align 4
  %85 = icmp eq i32 %84, -1
  br i1 %85, label %86, label %88

86:                                               ; preds = %83
  %87 = call i32 (i8*, ...) @printf(i8* getelementptr inbounds ([3 x i8], [3 x i8]* @.str, i64 0, i64 0))
  br label %91

88:                                               ; preds = %83
  %89 = load i32, i32* %7, align 4
  %90 = call i32 (i8*, ...) @printf(i8* getelementptr inbounds ([3 x i8], [3 x i8]* @.str.1, i64 0, i64 0), i32 %89)
  br label %91

91:                                               ; preds = %88, %86
  ret i32 0
}

; Function Attrs: argmemonly nounwind willreturn
declare void @llvm.memset.p0i8.i64(i8* nocapture writeonly, i8, i64, i1 immarg) #1

declare dso_local i32 @getchar() #2

declare dso_local i32 @printf(i8*, ...) #2


!llvm.module.flags = !{!0}
!llvm.ident = !{!1}

!0 = !{i32 1, !"wchar_size", i32 4}
!1 = !{!"clang version 10.0.0-4ubuntu1 "}
